; Function Attrs: mustprogress nofree norecurse nosync nounwind willreturn memory(none) uwtable
define noundef zeroext i1 @WasmEdge_ValTypeIsFuncRef(i64 %0) local_unnamed_addr #0 personality ptr @__gxx_personality_v0 {
  %.sroa.1.0.extract.shift = lshr i64 %0, 24
  %.sroa.1.0.extract.trunc = trunc i64 %.sroa.1.0.extract.shift to i8
  switch i8 %.sroa.1.0.extract.trunc, label %2 [
    i8 112, label %_ZNK8WasmEdge7ValType13isFuncRefTypeEv.exit
    i8 115, label %_ZNK8WasmEdge7ValType13isFuncRefTypeEv.exit
    i8 0, label %_ZNK8WasmEdge7ValType13isFuncRefTypeEv.exit
  ]

2:                                                ; preds = %1
  br label %_ZNK8WasmEdge7ValType13isFuncRefTypeEv.exit

_ZNK8WasmEdge7ValType13isFuncRefTypeEv.exit:      ; preds = %1, %1, %1, %2
  %3 = phi i1 [ true, %1 ], [ false, %2 ], [ true, %1 ], [ true, %1 ]
  ret i1 %3
}